target datalayout = "e-m:e-p270:32:32-p271:32:32-p272:64:64-i64:64-i128:128-f80:128-n8:16:32:64-S128"
target triple = "x86_64-pc-linux-gnu"

; Function Attrs: inlinehint nounwind uwtable
define internal i64 @mbedtls_ct_if(i64 noundef %0, i64 noundef %1, i64 noundef %2) #3 {
  %4 = alloca i64, align 8
  %5 = alloca i64, align 8
  %6 = alloca i64, align 8
  store i64 %0, ptr %4, align 8, !tbaa !43
  store i64 %1, ptr %5, align 8, !tbaa !43
  store i64 %2, ptr %6, align 8, !tbaa !43
  %7 = load i64, ptr %4, align 8, !tbaa !43
  %8 = load i64, ptr %5, align 8, !tbaa !43
  %9 = load i64, ptr %6, align 8, !tbaa !43
  %10 = call { i64, i64, i64 } asm sideeffect "and  $0, $1                      \0A\09not  $0                              \0A\09and  $0, $2                      \0A\09or   $1, $2                            \0A\09", "=&{di},=&{si},=&{ax},0,1,2,~{dirflag},~{fpsr},~{flags}"(i64 %7, i64 %8, i64 %9) #7, !srcloc !68
  %11 = extractvalue { i64, i64, i64 } %10, 0
  %12 = extractvalue { i64, i64, i64 } %10, 1
  %13 = extractvalue { i64, i64, i64 } %10, 2
  store i64 %11, ptr %4, align 8, !tbaa !43
  store i64 %12, ptr %5, align 8, !tbaa !43
  store i64 %13, ptr %6, align 8, !tbaa !43
  %14 = load i64, ptr %6, align 8, !tbaa !43
  ret i64 %14
}

; Function Attrs: inlinehint nounwind uwtable
define internal i64 @mbedtls_ct_bool(i64 noundef %0) #3 {
  %2 = alloca i64, align 8
  %3 = alloca i64, align 8
  store i64 %0, ptr %2, align 8, !tbaa !43
  call void @llvm.lifetime.start.p0(i64 8, ptr %3) #7
  %4 = load i64, ptr %2, align 8, !tbaa !43
  %5 = call i64 asm sideeffect "mov  $1, $0                                \0A\09neg  $0                                      \0A\09or   $1, $0                                \0A\09sar  $$63, $0                                 \0A\09", "=&{ax},{di},~{dirflag},~{fpsr},~{flags}"(i64 %4) #7, !srcloc !67
  store i64 %5, ptr %3, align 8, !tbaa !43
  %6 = load i64, ptr %3, align 8, !tbaa !43
  call void @llvm.lifetime.end.p0(i64 8, ptr %3) #7
  ret i64 %6
}

; Function Attrs: inlinehint nounwind uwtable
define internal i64 @mbedtls_ct_size_if(i64 noundef %0, i64 noundef %1, i64 noundef %2) #3 {
  %4 = alloca i64, align 8
  %5 = alloca i64, align 8
  %6 = alloca i64, align 8
  store i64 %0, ptr %4, align 8, !tbaa !43
  store i64 %1, ptr %5, align 8, !tbaa !43
  store i64 %2, ptr %6, align 8, !tbaa !43
  %7 = load i64, ptr %4, align 8, !tbaa !43
  %8 = load i64, ptr %5, align 8, !tbaa !43
  %9 = load i64, ptr %6, align 8, !tbaa !43
  %10 = call i64 @mbedtls_ct_if(i64 noundef %7, i64 noundef %8, i64 noundef %9)
  ret i64 %10
}

; Function Attrs: inlinehint nounwind uwtable
define internal i64 @mbedtls_ct_bool_ne(i64 noundef %0, i64 noundef %1) #3 {
  %3 = alloca i64, align 8
  %4 = alloca i64, align 8
  store i64 %0, ptr %3, align 8, !tbaa !43
  store i64 %1, ptr %4, align 8, !tbaa !43
  %5 = load i64, ptr %3, align 8, !tbaa !43
  %6 = load i64, ptr %4, align 8, !tbaa !43
  %7 = xor i64 %5, %6
  ret i64 %7
}

; Function Attrs: inlinehint nounwind uwtable
define internal i64 @mbedtls_ct_bool_or(i64 noundef %0, i64 noundef %1) #3 {
  %3 = alloca i64, align 8
  %4 = alloca i64, align 8
  store i64 %0, ptr %3, align 8, !tbaa !43
  store i64 %1, ptr %4, align 8, !tbaa !43
  %5 = load i64, ptr %3, align 8, !tbaa !43
  %6 = load i64, ptr %4, align 8, !tbaa !43
  %7 = or i64 %5, %6
  ret i64 %7
}

; Function Attrs: inlinehint nounwind uwtable
define internal i64 @mbedtls_ct_uint_ne(i64 noundef %0, i64 noundef %1) #3 {
  %3 = alloca i64, align 8
  %4 = alloca i64, align 8
  %5 = alloca i64, align 8
  store i64 %0, ptr %3, align 8, !tbaa !43
  store i64 %1, ptr %4, align 8, !tbaa !43
  call void @llvm.lifetime.start.p0(i64 8, ptr %5) #7
  %6 = load i64, ptr %3, align 8, !tbaa !43
  %7 = call i64 @mbedtls_ct_compiler_opaque(i64 noundef %6)
  %8 = load i64, ptr %4, align 8, !tbaa !43
  %9 = call i64 @mbedtls_ct_compiler_opaque(i64 noundef %8)
  %10 = xor i64 %7, %9
  store i64 %10, ptr %5, align 8, !tbaa !43
  %11 = load i64, ptr %5, align 8, !tbaa !43
  %12 = call i64 @mbedtls_ct_bool(i64 noundef %11)
  call void @llvm.lifetime.end.p0(i64 8, ptr %5) #7
  ret i64 %12
}

; Function Attrs: inlinehint nounwind uwtable
define internal i64 @mbedtls_ct_compiler_opaque(i64 noundef %0) #3 {
  %2 = alloca i64, align 8
  store i64 %0, ptr %2, align 8, !tbaa !43
  %3 = load i64, ptr %2, align 8, !tbaa !43
  %4 = call i64 asm sideeffect "", "=r,0,~{dirflag},~{fpsr},~{flags}"(i64 %3) #7, !srcloc !66
  store i64 %4, ptr %2, align 8, !tbaa !43
  %5 = load i64, ptr %2, align 8, !tbaa !43
  ret i64 %5
}

; Function Attrs: nounwind uwtable
define internal i32 @get_zeros_padding(ptr noundef %0, i64 noundef %1, ptr noundef %2) #0 {
  %4 = alloca i32, align 4
  %5 = alloca ptr, align 8
  %6 = alloca i64, align 8
  %7 = alloca ptr, align 8
  %8 = alloca i64, align 8
  %9 = alloca i64, align 8
  %10 = alloca i64, align 8
  %11 = alloca i32, align 4
  store ptr %0, ptr %5, align 8, !tbaa !18
  store i64 %1, ptr %6, align 8, !tbaa !43
  store ptr %2, ptr %7, align 8, !tbaa !46
  call void @llvm.lifetime.start.p0(i64 8, ptr %8) #7
  call void @llvm.lifetime.start.p0(i64 8, ptr %9) #7
  %12 = call i64 @mbedtls_ct_compiler_opaque(i64 noundef 0)
  store i64 %12, ptr %9, align 8, !tbaa !43
  call void @llvm.lifetime.start.p0(i64 8, ptr %10) #7
  %13 = load ptr, ptr %5, align 8, !tbaa !18
  %14 = icmp eq ptr null, %13
  br i1 %14, label %18, label %15

15:                                               ; preds = %3
  %16 = load ptr, ptr %7, align 8, !tbaa !46
  %17 = icmp eq ptr null, %16
  br i1 %17, label %18, label %19

18:                                               ; preds = %15, %3
  store i32 -24832, ptr %4, align 4
  store i32 1, ptr %11, align 4
  br label %48

19:                                               ; preds = %15
  %20 = load ptr, ptr %7, align 8, !tbaa !46
  store i64 0, ptr %20, align 8, !tbaa !43
  %21 = load i64, ptr %6, align 8, !tbaa !43
  store i64 %21, ptr %8, align 8, !tbaa !43
  br label %22

22:                                               ; preds = %44, %19
  %23 = load i64, ptr %8, align 8, !tbaa !43
  %24 = icmp ugt i64 %23, 0
  br i1 %24, label %25, label %47

25:                                               ; preds = %22
  %26 = load i64, ptr %9, align 8, !tbaa !43
  store i64 %26, ptr %10, align 8, !tbaa !43
  %27 = load i64, ptr %9, align 8, !tbaa !43
  %28 = load ptr, ptr %5, align 8, !tbaa !18
  %29 = load i64, ptr %8, align 8, !tbaa !43
  %30 = sub i64 %29, 1
  %31 = getelementptr inbounds nuw i8, ptr %28, i64 %30
  %32 = load i8, ptr %31, align 1, !tbaa !57
  %33 = zext i8 %32 to i64
  %34 = call i64 @mbedtls_ct_uint_ne(i64 noundef %33, i64 noundef 0)
  %35 = call i64 @mbedtls_ct_bool_or(i64 noundef %27, i64 noundef %34)
  store i64 %35, ptr %9, align 8, !tbaa !43
  %36 = load i64, ptr %9, align 8, !tbaa !43
  %37 = load i64, ptr %10, align 8, !tbaa !43
  %38 = call i64 @mbedtls_ct_bool_ne(i64 noundef %36, i64 noundef %37)
  %39 = load i64, ptr %8, align 8, !tbaa !43
  %40 = load ptr, ptr %7, align 8, !tbaa !46
  %41 = load i64, ptr %40, align 8, !tbaa !43
  %42 = call i64 @mbedtls_ct_size_if(i64 noundef %38, i64 noundef %39, i64 noundef %41)
  %43 = load ptr, ptr %7, align 8, !tbaa !46
  store i64 %42, ptr %43, align 8, !tbaa !43
  br label %44

44:                                               ; preds = %25
  %45 = load i64, ptr %8, align 8, !tbaa !43
  %46 = add i64 %45, -1
  store i64 %46, ptr %8, align 8, !tbaa !43
  br label %22, !llvm.loop !64

47:                                               ; preds = %22
  store i32 0, ptr %4, align 4
  store i32 1, ptr %11, align 4
  br label %48

48:                                               ; preds = %47, %18
  call void @llvm.lifetime.end.p0(i64 8, ptr %10) #7
  call void @llvm.lifetime.end.p0(i64 8, ptr %9) #7
  call void @llvm.lifetime.end.p0(i64 8, ptr %8) #7
  %49 = load i32, ptr %4, align 4
  ret i32 %49
}