; Function Attrs: nounwind uwtable
define internal range(i32 -24832, 1) i32 @get_zeros_padding(ptr noundef readonly %0, i64 noundef %1, ptr noundef %2) #8 {
  %4 = tail call i64 asm sideeffect "", "=r,0,~{dirflag},~{fpsr},~{flags}"(i64 0) #15, !srcloc !50
  %5 = icmp eq ptr %0, null
  %6 = icmp eq ptr %2, null
  %or.cond = or i1 %5, %6
  br i1 %or.cond, label %.loopexit, label %7

7:                                                ; preds = %3
  store i64 0, ptr %2, align 8, !tbaa !37
  %invariant.gep = getelementptr i8, ptr %0, i64 -1
  %.not20 = icmp eq i64 %1, 0
  br i1 %.not20, label %.loopexit, label %.lr.ph

.lr.ph:                                           ; preds = %7, %.lr.ph
  %.01622 = phi i64 [ %14, %.lr.ph ], [ %4, %7 ]
  %.01721 = phi i64 [ %19, %.lr.ph ], [ %1, %7 ]
  %gep = getelementptr i8, ptr %invariant.gep, i64 %.01721
  %8 = load i8, ptr %gep, align 1, !tbaa !47
  %9 = zext i8 %8 to i64
  %10 = tail call i64 asm sideeffect "", "=r,0,~{dirflag},~{fpsr},~{flags}"(i64 range(i64 0, 256) %9) #15, !srcloc !50
  %11 = tail call i64 asm sideeffect "", "=r,0,~{dirflag},~{fpsr},~{flags}"(i64 range(i64 -1, 256) 0) #15, !srcloc !50
  %12 = xor i64 %11, %10
  %13 = tail call i64 asm sideeffect "mov  $1, $0                                \0A\09neg  $0                                      \0A\09or   $1, $0                                \0A\09sar  $$63, $0                                 \0A\09", "=&{ax},{di},~{dirflag},~{fpsr},~{flags}"(i64 %12) #15, !srcloc !51
  %14 = or i64 %13, %.01622
  %15 = xor i64 %14, %.01622
  %16 = load i64, ptr %2, align 8, !tbaa !37
  %17 = tail call { i64, i64, i64 } asm sideeffect "and  $0, $1                      \0A\09not  $0                              \0A\09and  $0, $2                      \0A\09or   $1, $2                            \0A\09", "=&{di},=&{si},=&{ax},0,1,2,~{dirflag},~{fpsr},~{flags}"(i64 %15, i64 %.01721, i64 %16) #15, !srcloc !54
  %18 = extractvalue { i64, i64, i64 } %17, 2
  store i64 %18, ptr %2, align 8, !tbaa !37
  %19 = add i64 %.01721, -1
  %.not = icmp eq i64 %19, 0
  br i1 %.not, label %.loopexit, label %.lr.ph, !llvm.loop !58

.loopexit:                                        ; preds = %.lr.ph, %7, %3
  %.0 = phi i32 [ -24832, %3 ], [ 0, %7 ], [ 0, %.lr.ph ]
  ret i32 %.0
}